; ModuleID = '2/1360.c'
source_filename = "2/1360.c"
target datalayout = "e-m:e-p270:32:32-p271:32:32-p272:64:64-i64:64-f80:128-n8:16:32:64-S128"
target triple = "x86_64-pc-linux-gnu"

%struct.x = type { i32, [26 x i8] }

@__const.main.num = private unnamed_addr constant [26 x i32] [i32 65, i32 66, i32 67, i32 68, i32 69, i32 70, i32 71, i32 72, i32 73, i32 74, i32 75, i32 76, i32 77, i32 78, i32 79, i32 80, i32 81, i32 82, i32 83, i32 84, i32 85, i32 86, i32 87, i32 88, i32 89, i32 90], align 16
@.str = private unnamed_addr constant [3 x i8] c"%d\00", align 1
@.str.1 = private unnamed_addr constant [7 x i8] c"%c\0A%d\0A\00", align 1
@.str.2 = private unnamed_addr constant [4 x i8] c"%d\0A\00", align 1

; Function Attrs: noinline nounwind uwtable
define dso_local i32 @main() #0 {
  %1 = alloca i32, align 4
  %2 = alloca [1000 x %struct.x], align 16
  %3 = alloca i32, align 4
  %4 = alloca i32, align 4
  %5 = alloca i32, align 4
  %6 = alloca i32, align 4
  %7 = alloca i32, align 4
  %8 = alloca i32, align 4
  %9 = alloca [26 x [1000 x i32]], align 16
  %10 = alloca [26 x i32], align 16
  %11 = alloca [26 x i32], align 16
  store i32 0, i32* %1, align 4
  %12 = bitcast [26 x i32]* %10 to i8*
  call void @llvm.memset.p0i8.i64(i8* align 16 %12, i8 0, i64 104, i1 false)
  %13 = bitcast [26 x i32]* %11 to i8*
  call void @llvm.memcpy.p0i8.p0i8.i64(i8* align 16 %13, i8* align 16 bitcast ([26 x i32]* @__const.main.num to i8*), i64 104, i1 false)
  %14 = call i32 (i8*, ...) @__isoc99_scanf(i8* getelementptr inbounds ([3 x i8], [3 x i8]* @.str, i64 0, i64 0), i32* %5)
  store i32 0, i32* %3, align 4
  br label %15

15:                                               ; preds = %31, %0
  %16 = load i32, i32* %3, align 4
  %17 = load i32, i32* %5, align 4
  %18 = icmp slt i32 %16, %17
  br i1 %18, label %19, label %34

19:                                               ; preds = %15
  %20 = load i32, i32* %3, align 4
  %21 = sext i32 %20 to i64
  %22 = getelementptr inbounds [1000 x %struct.x], [1000 x %struct.x]* %2, i64 0, i64 %21
  %23 = getelementptr inbounds %struct.x, %struct.x* %22, i32 0, i32 0
  %24 = call i32 (i8*, ...) @__isoc99_scanf(i8* getelementptr inbounds ([3 x i8], [3 x i8]* @.str, i64 0, i64 0), i32* %23)
  %25 = load i32, i32* %3, align 4
  %26 = sext i32 %25 to i64
  %27 = getelementptr inbounds [1000 x %struct.x], [1000 x %struct.x]* %2, i64 0, i64 %26
  %28 = getelementptr inbounds %struct.x, %struct.x* %27, i32 0, i32 1
  %29 = getelementptr inbounds [26 x i8], [26 x i8]* %28, i64 0, i64 0
  %30 = call i32 (i8*, ...) bitcast (i32 (...)* @gets to i32 (i8*, ...)*)(i8* %29)
  br label %31

31:                                               ; preds = %19
  %32 = load i32, i32* %3, align 4
  %33 = add nsw i32 %32, 1
  store i32 %33, i32* %3, align 4
  br label %15

34:                                               ; preds = %15
  store i32 65, i32* %3, align 4
  br label %35

35:                                               ; preds = %83, %34
  %36 = load i32, i32* %3, align 4
  %37 = icmp sle i32 %36, 90
  br i1 %37, label %38, label %86

38:                                               ; preds = %35
  store i32 0, i32* %4, align 4
  br label %39

39:                                               ; preds = %79, %38
  %40 = load i32, i32* %4, align 4
  %41 = load i32, i32* %5, align 4
  %42 = icmp slt i32 %40, %41
  br i1 %42, label %43, label %82

43:                                               ; preds = %39
  %44 = load i32, i32* %4, align 4
  %45 = sext i32 %44 to i64
  %46 = getelementptr inbounds [1000 x %struct.x], [1000 x %struct.x]* %2, i64 0, i64 %45
  %47 = getelementptr inbounds %struct.x, %struct.x* %46, i32 0, i32 1
  %48 = getelementptr inbounds [26 x i8], [26 x i8]* %47, i64 0, i64 0
  %49 = call i64 @strlen(i8* %48) #4
  %50 = trunc i64 %49 to i32
  store i32 %50, i32* %6, align 4
  store i32 0, i32* %7, align 4
  br label %51

51:                                               ; preds = %75, %43
  %52 = load i32, i32* %7, align 4
  %53 = load i32, i32* %6, align 4
  %54 = icmp slt i32 %52, %53
  br i1 %54, label %55, label %78

55:                                               ; preds = %51
  %56 = load i32, i32* %3, align 4
  %57 = load i32, i32* %4, align 4
  %58 = sext i32 %57 to i64
  %59 = getelementptr inbounds [1000 x %struct.x], [1000 x %struct.x]* %2, i64 0, i64 %58
  %60 = getelementptr inbounds %struct.x, %struct.x* %59, i32 0, i32 1
  %61 = load i32, i32* %7, align 4
  %62 = sext i32 %61 to i64
  %63 = getelementptr inbounds [26 x i8], [26 x i8]* %60, i64 0, i64 %62
  %64 = load i8, i8* %63, align 1
  %65 = sext i8 %64 to i32
  %66 = icmp eq i32 %56, %65
  br i1 %66, label %67, label %74

67:                                               ; preds = %55
  %68 = load i32, i32* %3, align 4
  %69 = sub nsw i32 %68, 65
  %70 = sext i32 %69 to i64
  %71 = getelementptr inbounds [26 x i32], [26 x i32]* %10, i64 0, i64 %70
  %72 = load i32, i32* %71, align 4
  %73 = add nsw i32 %72, 1
  store i32 %73, i32* %71, align 4
  br label %74

74:                                               ; preds = %67, %55
  br label %75

75:                                               ; preds = %74
  %76 = load i32, i32* %7, align 4
  %77 = add nsw i32 %76, 1
  store i32 %77, i32* %7, align 4
  br label %51

78:                                               ; preds = %51
  br label %79

79:                                               ; preds = %78
  %80 = load i32, i32* %4, align 4
  %81 = add nsw i32 %80, 1
  store i32 %81, i32* %4, align 4
  br label %39

82:                                               ; preds = %39
  br label %83

83:                                               ; preds = %82
  %84 = load i32, i32* %3, align 4
  %85 = add nsw i32 %84, 1
  store i32 %85, i32* %3, align 4
  br label %35

86:                                               ; preds = %35
  store i32 0, i32* %3, align 4
  br label %87

87:                                               ; preds = %137, %86
  %88 = load i32, i32* %3, align 4
  %89 = icmp slt i32 %88, 25
  br i1 %89, label %90, label %140

90:                                               ; preds = %87
  %91 = load i32, i32* %3, align 4
  %92 = sext i32 %91 to i64
  %93 = getelementptr inbounds [26 x i32], [26 x i32]* %10, i64 0, i64 %92
  %94 = load i32, i32* %93, align 4
  %95 = load i32, i32* %3, align 4
  %96 = add nsw i32 %95, 1
  %97 = sext i32 %96 to i64
  %98 = getelementptr inbounds [26 x i32], [26 x i32]* %10, i64 0, i64 %97
  %99 = load i32, i32* %98, align 4
  %100 = icmp sgt i32 %94, %99
  br i1 %100, label %101, label %136

101:                                              ; preds = %90
  %102 = load i32, i32* %3, align 4
  %103 = sext i32 %102 to i64
  %104 = getelementptr inbounds [26 x i32], [26 x i32]* %10, i64 0, i64 %103
  %105 = load i32, i32* %104, align 4
  store i32 %105, i32* %8, align 4
  %106 = load i32, i32* %3, align 4
  %107 = add nsw i32 %106, 1
  %108 = sext i32 %107 to i64
  %109 = getelementptr inbounds [26 x i32], [26 x i32]* %10, i64 0, i64 %108
  %110 = load i32, i32* %109, align 4
  %111 = load i32, i32* %3, align 4
  %112 = sext i32 %111 to i64
  %113 = getelementptr inbounds [26 x i32], [26 x i32]* %10, i64 0, i64 %112
  store i32 %110, i32* %113, align 4
  %114 = load i32, i32* %8, align 4
  %115 = load i32, i32* %3, align 4
  %116 = add nsw i32 %115, 1
  %117 = sext i32 %116 to i64
  %118 = getelementptr inbounds [26 x i32], [26 x i32]* %10, i64 0, i64 %117
  store i32 %114, i32* %118, align 4
  %119 = load i32, i32* %3, align 4
  %120 = sext i32 %119 to i64
  %121 = getelementptr inbounds [26 x i32], [26 x i32]* %11, i64 0, i64 %120
  %122 = load i32, i32* %121, align 4
  store i32 %122, i32* %8, align 4
  %123 = load i32, i32* %3, align 4
  %124 = add nsw i32 %123, 1
  %125 = sext i32 %124 to i64
  %126 = getelementptr inbounds [26 x i32], [26 x i32]* %11, i64 0, i64 %125
  %127 = load i32, i32* %126, align 4
  %128 = load i32, i32* %3, align 4
  %129 = sext i32 %128 to i64
  %130 = getelementptr inbounds [26 x i32], [26 x i32]* %11, i64 0, i64 %129
  store i32 %127, i32* %130, align 4
  %131 = load i32, i32* %8, align 4
  %132 = load i32, i32* %3, align 4
  %133 = add nsw i32 %132, 1
  %134 = sext i32 %133 to i64
  %135 = getelementptr inbounds [26 x i32], [26 x i32]* %11, i64 0, i64 %134
  store i32 %131, i32* %135, align 4
  br label %136

136:                                              ; preds = %101, %90
  br label %137

137:                                              ; preds = %136
  %138 = load i32, i32* %3, align 4
  %139 = add nsw i32 %138, 1
  store i32 %139, i32* %3, align 4
  br label %87

140:                                              ; preds = %87
  %141 = getelementptr inbounds [26 x i32], [26 x i32]* %11, i64 0, i64 25
  %142 = load i32, i32* %141, align 4
  %143 = getelementptr inbounds [26 x i32], [26 x i32]* %10, i64 0, i64 25
  %144 = load i32, i32* %143, align 4
  %145 = call i32 (i8*, ...) @printf(i8* getelementptr inbounds ([7 x i8], [7 x i8]* @.str.1, i64 0, i64 0), i32 %142, i32 %144)
  store i32 0, i32* %3, align 4
  br label %146

146:                                              ; preds = %187, %140
  %147 = load i32, i32* %3, align 4
  %148 = load i32, i32* %5, align 4
  %149 = icmp slt i32 %147, %148
  br i1 %149, label %150, label %190

150:                                              ; preds = %146
  %151 = load i32, i32* %3, align 4
  %152 = sext i32 %151 to i64
  %153 = getelementptr inbounds [1000 x %struct.x], [1000 x %struct.x]* %2, i64 0, i64 %152
  %154 = getelementptr inbounds %struct.x, %struct.x* %153, i32 0, i32 1
  %155 = getelementptr inbounds [26 x i8], [26 x i8]* %154, i64 0, i64 0
  %156 = call i64 @strlen(i8* %155) #4
  %157 = trunc i64 %156 to i32
  store i32 %157, i32* %6, align 4
  store i32 0, i32* %7, align 4
  br label %158

158:                                              ; preds = %183, %150
  %159 = load i32, i32* %7, align 4
  %160 = load i32, i32* %6, align 4
  %161 = icmp slt i32 %159, %160
  br i1 %161, label %162, label %186

162:                                              ; preds = %158
  %163 = load i32, i32* %3, align 4
  %164 = sext i32 %163 to i64
  %165 = getelementptr inbounds [1000 x %struct.x], [1000 x %struct.x]* %2, i64 0, i64 %164
  %166 = getelementptr inbounds %struct.x, %struct.x* %165, i32 0, i32 1
  %167 = load i32, i32* %7, align 4
  %168 = sext i32 %167 to i64
  %169 = getelementptr inbounds [26 x i8], [26 x i8]* %166, i64 0, i64 %168
  %170 = load i8, i8* %169, align 1
  %171 = sext i8 %170 to i32
  %172 = getelementptr inbounds [26 x i32], [26 x i32]* %11, i64 0, i64 25
  %173 = load i32, i32* %172, align 4
  %174 = icmp eq i32 %171, %173
  br i1 %174, label %175, label %182

175:                                              ; preds = %162
  %176 = load i32, i32* %3, align 4
  %177 = sext i32 %176 to i64
  %178 = getelementptr inbounds [1000 x %struct.x], [1000 x %struct.x]* %2, i64 0, i64 %177
  %179 = getelementptr inbounds %struct.x, %struct.x* %178, i32 0, i32 0
  %180 = load i32, i32* %179, align 16
  %181 = call i32 (i8*, ...) @printf(i8* getelementptr inbounds ([4 x i8], [4 x i8]* @.str.2, i64 0, i64 0), i32 %180)
  br label %182

182:                                              ; preds = %175, %162
  br label %183

183:                                              ; preds = %182
  %184 = load i32, i32* %7, align 4
  %185 = add nsw i32 %184, 1
  store i32 %185, i32* %7, align 4
  br label %158

186:                                              ; preds = %158
  br label %187

187:                                              ; preds = %186
  %188 = load i32, i32* %3, align 4
  %189 = add nsw i32 %188, 1
  store i32 %189, i32* %3, align 4
  br label %146

190:                                              ; preds = %146
  ret i32 0
}

; Function Attrs: argmemonly nounwind willreturn
declare void @llvm.memset.p0i8.i64(i8* nocapture writeonly, i8, i64, i1 immarg) #1

; Function Attrs: argmemonly nounwind willreturn
declare void @llvm.memcpy.p0i8.p0i8.i64(i8* noalias nocapture writeonly, i8* noalias nocapture readonly, i64, i1 immarg) #1

declare dso_local i32 @__isoc99_scanf(i8*, ...) #2

declare dso_local i32 @gets(...) #2

; Function Attrs: nounwind readonly
declare dso_local i64 @strlen(i8*) #3

declare dso_local i32 @printf(i8*, ...) #2


!llvm.module.flags = !{!0}
!llvm.ident = !{!1}

!0 = !{i32 1, !"wchar_size", i32 4}
!1 = !{!"clang version 10.0.0-4ubuntu1 "}
